; Function Attrs: mustprogress uwtable
define void @_ZN2cv8ximgproc14createDTFilterERKNS_11_InputArrayEddii(ptr dead_on_unwind noalias writable writeonly sret(%"struct.cv::Ptr") align 8 captures(none) initializes((0, 16)) %0, ptr noundef nonnull align 8 dereferenceable(24) %1, double noundef %2, double noundef %3, i32 noundef %4, i32 noundef %5) local_unnamed_addr #3 personality ptr @__gxx_personality_v0 {
_ZNSt12__shared_ptrIN2cv8ximgproc11DTFilterCPUELN9__gnu_cxx12_Lock_policyE2EED2Ev.exit:
  %6 = alloca %"struct.cv::Ptr.0", align 8
  call void @llvm.lifetime.start.p0(i64 16, ptr nonnull %6) #8
  call void @_ZN2cv8ximgproc11DTFilterCPU6createERKNS_11_InputArrayEddii(ptr dead_on_unwind nonnull writable sret(%"struct.cv::Ptr.0") align 8 %6, ptr noundef nonnull align 8 dereferenceable(24) %1, double noundef %2, double noundef %3, i32 noundef %4, i32 noundef %5)
  %7 = load ptr, ptr %6, align 8, !tbaa !3
  store ptr %7, ptr %0, align 8, !tbaa !11
  %8 = getelementptr inbounds nuw i8, ptr %0, i64 8
  %9 = getelementptr inbounds nuw i8, ptr %6, i64 8
  %10 = load ptr, ptr %9, align 8, !tbaa !14
  store ptr %10, ptr %8, align 8, !tbaa !14
  call void @llvm.lifetime.end.p0(i64 16, ptr nonnull %6) #8
  ret void
}